target datalayout = "e-m:e-p270:32:32-p271:32:32-p272:64:64-i64:64-i128:128-f80:128-n8:16:32:64-S128"
target triple = "x86_64-unknown-linux-gnu"

%struct.snd_mask = type { [8 x i32] }

; Function Attrs: fn_ret_thunk_extern nounwind null_pointer_is_valid
define internal i32 @snd_pcm_hw_rule_subformats(ptr nocapture noundef %0, ptr nocapture noundef readonly %1) #0 align 16 {
  %3 = alloca %struct.snd_mask, align 4
  %4 = alloca %struct.snd_mask, align 4
  %5 = getelementptr i8, ptr %0, i64 36
  %6 = getelementptr inbounds i8, ptr %1, i64 40
  %7 = load ptr, ptr %6, align 8
  call void @llvm.lifetime.start.p0(i64 32, ptr nonnull %4) #17
  call void @llvm.memset.p0.i64(ptr noundef nonnull align 4 dereferenceable(32) %4, i8 0, i64 32, i1 false)
  store i32 1, ptr %4, align 4
  br label %8

8:                                                ; preds = %31, %2
  %9 = phi i32 [ 0, %2 ], [ %33, %31 ]
  %10 = phi i32 [ 1, %2 ], [ %32, %31 ]
  %11 = lshr i32 %9, 5
  %12 = zext nneg i32 %11 to i64
  %13 = getelementptr [8 x i32], ptr %5, i64 0, i64 %12
  %14 = load i32, ptr %13, align 4
  %15 = and i32 %9, 31
  %16 = shl nuw i32 1, %15
  %17 = and i32 %14, %16
  %18 = icmp eq i32 %17, 0
  br i1 %18, label %31, label %19

19:                                               ; preds = %8
  %20 = icmp eq i32 %9, 10
  br i1 %20, label %21, label %26

21:                                               ; preds = %19
  %22 = load i32, ptr %7, align 4
  %23 = icmp eq i32 %22, 0
  br i1 %23, label %26, label %24

24:                                               ; preds = %21
  %25 = or i32 %10, %22
  br label %31

26:                                               ; preds = %21, %19
  %27 = tail call i32 @snd_pcm_format_linear(i32 noundef %9) #17
  %28 = icmp eq i32 %27, 0
  %29 = or i32 %10, 2
  %30 = select i1 %28, i32 %10, i32 %29
  br label %31

31:                                               ; preds = %26, %24, %8
  %32 = phi i32 [ %25, %24 ], [ %10, %8 ], [ %30, %26 ]
  %33 = add nuw nsw i32 %9, 1
  %34 = icmp eq i32 %33, 53
  br i1 %34, label %35, label %8, !llvm.loop !55

35:                                               ; preds = %31
  %36 = getelementptr i8, ptr %0, i64 68
  store i32 %32, ptr %4, align 4
  call void @llvm.lifetime.start.p0(i64 32, ptr nonnull %3) #17
  call void @llvm.memcpy.p0.p0.i64(ptr noundef nonnull align 4 dereferenceable(32) %3, ptr noundef align 4 dereferenceable(32) %36, i64 32, i1 false)
  br label %37

37:                                               ; preds = %37, %35
  %38 = phi i64 [ 0, %35 ], [ %44, %37 ]
  %39 = getelementptr [8 x i32], ptr %4, i64 0, i64 %38
  %40 = load i32, ptr %39, align 4
  %41 = getelementptr [8 x i32], ptr %36, i64 0, i64 %38
  %42 = load i32, ptr %41, align 4
  %43 = and i32 %42, %40
  store i32 %43, ptr %41, align 4
  %44 = add nuw nsw i64 %38, 1
  %45 = icmp eq i64 %38, 0
  br i1 %45, label %37, label %46, !llvm.loop !11

46:                                               ; preds = %46, %37
  %47 = phi i64 [ %51, %46 ], [ 0, %37 ]
  %48 = getelementptr [8 x i32], ptr %36, i64 0, i64 %47
  %49 = load i32, ptr %48, align 4
  %50 = icmp eq i32 %49, 0
  %51 = add nuw nsw i64 %47, 1
  %52 = icmp eq i64 %47, 0
  %53 = and i1 %52, %50
  br i1 %53, label %46, label %54, !llvm.loop !8

54:                                               ; preds = %46
  br i1 %50, label %59, label %55

55:                                               ; preds = %54
  %56 = call i32 @bcmp(ptr noundef dereferenceable(8) %36, ptr noundef nonnull dereferenceable(8) %3, i64 8)
  %57 = icmp ne i32 %56, 0
  %58 = zext i1 %57 to i32
  br label %59

59:                                               ; preds = %55, %54
  %60 = phi i32 [ %58, %55 ], [ -22, %54 ]
  call void @llvm.lifetime.end.p0(i64 32, ptr nonnull %3) #17
  call void @llvm.lifetime.end.p0(i64 32, ptr nonnull %4) #17
  ret i32 %60
}