; Function Attrs: fn_ret_thunk_extern nounwind null_pointer_is_valid
define internal i32 @snd_pcm_hw_rule_subformats(ptr nocapture noundef %0, ptr nocapture noundef readonly %1) #0 align 16 {
  %3 = alloca %struct.snd_mask, align 4
  %4 = getelementptr i8, ptr %0, i64 36
  %5 = getelementptr inbounds i8, ptr %1, i64 40
  %6 = load ptr, ptr %5, align 8
  br label %7

7:                                                ; preds = %30, %2
  %8 = phi i32 [ 0, %2 ], [ %32, %30 ]
  %9 = phi i32 [ 1, %2 ], [ %31, %30 ]
  %10 = lshr i32 %8, 5
  %11 = zext nneg i32 %10 to i64
  %12 = getelementptr [8 x i32], ptr %4, i64 0, i64 %11
  %13 = load i32, ptr %12, align 4
  %14 = and i32 %8, 31
  %15 = shl nuw i32 1, %14
  %16 = and i32 %13, %15
  %17 = icmp eq i32 %16, 0
  br i1 %17, label %30, label %18

18:                                               ; preds = %7
  %19 = icmp eq i32 %8, 10
  br i1 %19, label %20, label %25

20:                                               ; preds = %18
  %21 = load i32, ptr %6, align 4
  %22 = icmp eq i32 %21, 0
  br i1 %22, label %25, label %23

23:                                               ; preds = %20
  %24 = or i32 %21, %9
  br label %30

25:                                               ; preds = %20, %18
  %26 = tail call i32 @snd_pcm_format_linear(i32 noundef %8) #18
  %27 = icmp eq i32 %26, 0
  %28 = or i32 %9, 2
  %29 = select i1 %27, i32 %9, i32 %28
  br label %30

30:                                               ; preds = %25, %23, %7
  %31 = phi i32 [ %24, %23 ], [ %9, %7 ], [ %29, %25 ]
  %32 = add nuw nsw i32 %8, 1
  %33 = icmp eq i32 %32, 53
  br i1 %33, label %.critedge, label %7, !llvm.loop !57

.critedge:                                        ; preds = %30
  %34 = getelementptr i8, ptr %0, i64 68
  call void @llvm.lifetime.start.p0(i64 32, ptr nonnull %3) #18
  call void @llvm.memcpy.p0.p0.i64(ptr noundef nonnull align 4 dereferenceable(32) %3, ptr noundef align 4 dereferenceable(32) %34, i64 32, i1 false)
  %35 = load i32, ptr %34, align 4
  %36 = and i32 %35, %31
  store i32 %36, ptr %34, align 4
  %37 = getelementptr i8, ptr %0, i64 72
  store i32 0, ptr %37, align 4
  br label %38

38:                                               ; preds = %.critedge, %38
  %39 = phi i1 [ false, %38 ], [ true, %.critedge ]
  %40 = phi i64 [ 1, %38 ], [ 0, %.critedge ]
  %41 = getelementptr [8 x i32], ptr %34, i64 0, i64 %40
  %42 = load i32, ptr %41, align 4
  %43 = icmp eq i32 %42, 0
  %44 = and i1 %39, %43
  br i1 %44, label %38, label %45, !llvm.loop !8

45:                                               ; preds = %38
  br i1 %43, label %50, label %46

46:                                               ; preds = %45
  %47 = call i32 @bcmp(ptr noundef dereferenceable(8) %34, ptr noundef nonnull dereferenceable(8) %3, i64 8)
  %48 = icmp ne i32 %47, 0
  %49 = zext i1 %48 to i32
  br label %50

50:                                               ; preds = %46, %45
  %51 = phi i32 [ %49, %46 ], [ -22, %45 ]
  call void @llvm.lifetime.end.p0(i64 32, ptr nonnull %3) #18
  ret i32 %51
}